; ModuleID = '11/799.c'
source_filename = "11/799.c"
target datalayout = "e-m:e-p270:32:32-p271:32:32-p272:64:64-i64:64-f80:128-n8:16:32:64-S128"
target triple = "x86_64-pc-linux-gnu"

@__const.main.p = private unnamed_addr constant [12 x i32] [i32 31, i32 28, i32 31, i32 30, i32 31, i32 30, i32 31, i32 31, i32 30, i32 31, i32 30, i32 31], align 16
@.str = private unnamed_addr constant [9 x i8] c"%d %d %d\00", align 1
@.str.1 = private unnamed_addr constant [3 x i8] c"%d\00", align 1

; Function Attrs: noinline nounwind uwtable
define dso_local i32 @f(i32 %0) #0 {
  %2 = alloca i32, align 4
  %3 = alloca i32, align 4
  store i32 %0, i32* %3, align 4
  %4 = load i32, i32* %3, align 4
  %5 = srem i32 %4, 100
  %6 = icmp ne i32 %5, 0
  br i1 %6, label %7, label %11

7:                                                ; preds = %1
  %8 = load i32, i32* %3, align 4
  %9 = srem i32 %8, 4
  %10 = icmp eq i32 %9, 0
  br i1 %10, label %19, label %11

11:                                               ; preds = %7, %1
  %12 = load i32, i32* %3, align 4
  %13 = srem i32 %12, 100
  %14 = icmp eq i32 %13, 0
  br i1 %14, label %15, label %20

15:                                               ; preds = %11
  %16 = load i32, i32* %3, align 4
  %17 = srem i32 %16, 400
  %18 = icmp eq i32 %17, 0
  br i1 %18, label %19, label %20

19:                                               ; preds = %15, %7
  store i32 1, i32* %2, align 4
  br label %21

20:                                               ; preds = %15, %11
  store i32 0, i32* %2, align 4
  br label %21

21:                                               ; preds = %20, %19
  %22 = load i32, i32* %2, align 4
  ret i32 %22
}

; Function Attrs: noinline nounwind uwtable
define dso_local i32 @main() #0 {
  %1 = alloca i32, align 4
  %2 = alloca i32, align 4
  %3 = alloca i32, align 4
  %4 = alloca i32, align 4
  %5 = alloca i32, align 4
  %6 = alloca i32, align 4
  %7 = alloca i32, align 4
  %8 = alloca i32, align 4
  %9 = alloca [12 x i32], align 16
  %10 = alloca i32, align 4
  store i32 0, i32* %1, align 4
  store i32 0, i32* %8, align 4
  %11 = bitcast [12 x i32]* %9 to i8*
  call void @llvm.memcpy.p0i8.p0i8.i64(i8* align 16 %11, i8* align 16 bitcast ([12 x i32]* @__const.main.p to i8*), i64 48, i1 false)
  %12 = call i32 (i8*, ...) @__isoc99_scanf(i8* getelementptr inbounds ([9 x i8], [9 x i8]* @.str, i64 0, i64 0), i32* %2, i32* %3, i32* %4)
  %13 = load i32, i32* %3, align 4
  %14 = icmp sgt i32 %13, 2
  br i1 %14, label %15, label %45

15:                                               ; preds = %0
  %16 = load i32, i32* %2, align 4
  %17 = call i32 @f(i32 %16)
  store i32 %17, i32* %5, align 4
  %18 = load i32, i32* %5, align 4
  %19 = icmp eq i32 %18, 1
  br i1 %19, label %20, label %25

20:                                               ; preds = %15
  %21 = getelementptr inbounds [12 x i32], [12 x i32]* %9, i64 0, i64 1
  %22 = load i32, i32* %21, align 4
  %23 = add nsw i32 %22, 1
  %24 = getelementptr inbounds [12 x i32], [12 x i32]* %9, i64 0, i64 1
  store i32 %23, i32* %24, align 4
  br label %25

25:                                               ; preds = %20, %15
  store i32 0, i32* %10, align 4
  br label %26

26:                                               ; preds = %38, %25
  %27 = load i32, i32* %10, align 4
  %28 = load i32, i32* %3, align 4
  %29 = sub nsw i32 %28, 1
  %30 = icmp slt i32 %27, %29
  br i1 %30, label %31, label %41

31:                                               ; preds = %26
  %32 = load i32, i32* %8, align 4
  %33 = load i32, i32* %10, align 4
  %34 = sext i32 %33 to i64
  %35 = getelementptr inbounds [12 x i32], [12 x i32]* %9, i64 0, i64 %34
  %36 = load i32, i32* %35, align 4
  %37 = add nsw i32 %32, %36
  store i32 %37, i32* %8, align 4
  br label %38

38:                                               ; preds = %31
  %39 = load i32, i32* %10, align 4
  %40 = add nsw i32 %39, 1
  store i32 %40, i32* %10, align 4
  br label %26

41:                                               ; preds = %26
  %42 = load i32, i32* %8, align 4
  %43 = load i32, i32* %4, align 4
  %44 = add nsw i32 %42, %43
  store i32 %44, i32* %8, align 4
  br label %58

45:                                               ; preds = %0
  %46 = load i32, i32* %3, align 4
  %47 = icmp eq i32 %46, 1
  br i1 %47, label %48, label %50

48:                                               ; preds = %45
  %49 = load i32, i32* %4, align 4
  store i32 %49, i32* %8, align 4
  br label %57

50:                                               ; preds = %45
  %51 = load i32, i32* %3, align 4
  %52 = icmp eq i32 %51, 2
  br i1 %52, label %53, label %56

53:                                               ; preds = %50
  %54 = load i32, i32* %4, align 4
  %55 = add nsw i32 31, %54
  store i32 %55, i32* %8, align 4
  br label %56

56:                                               ; preds = %53, %50
  br label %57

57:                                               ; preds = %56, %48
  br label %58

58:                                               ; preds = %57, %41
  %59 = load i32, i32* %8, align 4
  %60 = call i32 (i8*, ...) @printf(i8* getelementptr inbounds ([3 x i8], [3 x i8]* @.str.1, i64 0, i64 0), i32 %59)
  %61 = call i32 @getchar()
  %62 = call i32 @getchar()
  %63 = call i32 @getchar()
  %64 = load i32, i32* %1, align 4
  ret i32 %64
}

; Function Attrs: argmemonly nounwind willreturn
declare void @llvm.memcpy.p0i8.p0i8.i64(i8* noalias nocapture writeonly, i8* noalias nocapture readonly, i64, i1 immarg) #1

declare dso_local i32 @__isoc99_scanf(i8*, ...) #2

declare dso_local i32 @printf(i8*, ...) #2

declare dso_local i32 @getchar() #2


!llvm.module.flags = !{!0}
!llvm.ident = !{!1}

!0 = !{i32 1, !"wchar_size", i32 4}
!1 = !{!"clang version 10.0.0-4ubuntu1 "}
