; ModuleID = 'source-C-CXX/10/799.c'
source_filename = "source-C-CXX/10/799.c"
target datalayout = "e-m:e-p270:32:32-p271:32:32-p272:64:64-i64:64-f80:128-n8:16:32:64-S128"
target triple = "x86_64-pc-linux-gnu"

%struct._IO_FILE = type { i32, i8*, i8*, i8*, i8*, i8*, i8*, i8*, i8*, i8*, i8*, i8*, %struct._IO_marker*, %struct._IO_FILE*, i32, i32, i64, i16, i8, [1 x i8], i8*, i64, %struct._IO_codecvt*, %struct._IO_wide_data*, %struct._IO_FILE*, i8*, i64, i32, [20 x i8] }
%struct._IO_marker = type opaque
%struct._IO_codecvt = type opaque
%struct._IO_wide_data = type opaque

@__const.main.p = private unnamed_addr constant [12 x i32] [i32 31, i32 28, i32 31, i32 30, i32 31, i32 30, i32 31, i32 31, i32 30, i32 31, i32 30, i32 31], align 16
@.str = private unnamed_addr constant [9 x i8] c"%d %d %d\00", align 1
@.str.1 = private unnamed_addr constant [3 x i8] c"%d\00", align 1
@stdin = external local_unnamed_addr global %struct._IO_FILE*, align 8

; Function Attrs: mustprogress nofree norecurse nosync nounwind readnone sspstrong uwtable willreturn
define dso_local i32 @f(i32 %0) local_unnamed_addr #0 {
  %2 = srem i32 %0, 100
  %3 = icmp ne i32 %2, 0
  %4 = and i32 %0, 3
  %5 = icmp eq i32 %4, 0
  %6 = and i1 %3, %5
  br i1 %6, label %12, label %7

7:                                                ; preds = %1
  %8 = srem i32 %0, 400
  %9 = or i32 %2, %8
  %10 = icmp eq i32 %9, 0
  %11 = zext i1 %10 to i32
  br label %12

12:                                               ; preds = %7, %1
  %13 = phi i32 [ 1, %1 ], [ %11, %7 ]
  ret i32 %13
}

; Function Attrs: nofree nounwind sspstrong uwtable
define dso_local i32 @main() local_unnamed_addr #1 {
  %1 = alloca i32, align 4
  %2 = alloca i32, align 4
  %3 = alloca i32, align 4
  %4 = alloca [12 x i32], align 16
  %5 = bitcast i32* %1 to i8*
  call void @llvm.lifetime.start.p0i8(i64 4, i8* nonnull %5) #6
  %6 = bitcast i32* %2 to i8*
  call void @llvm.lifetime.start.p0i8(i64 4, i8* nonnull %6) #6
  %7 = bitcast i32* %3 to i8*
  call void @llvm.lifetime.start.p0i8(i64 4, i8* nonnull %7) #6
  %8 = bitcast [12 x i32]* %4 to i8*
  call void @llvm.lifetime.start.p0i8(i64 48, i8* nonnull %8) #6
  call void @llvm.memcpy.p0i8.p0i8.i64(i8* noundef nonnull align 16 dereferenceable(48) %8, i8* noundef nonnull align 16 dereferenceable(48) bitcast ([12 x i32]* @__const.main.p to i8*), i64 48, i1 false)
  %9 = call i32 (i8*, ...) @__isoc99_scanf(i8* getelementptr inbounds ([9 x i8], [9 x i8]* @.str, i64 0, i64 0), i32* nonnull %1, i32* nonnull %2, i32* nonnull %3)
  %10 = load i32, i32* %2, align 4, !tbaa !5
  %11 = icmp sgt i32 %10, 2
  br i1 %11, label %12, label %125

12:                                               ; preds = %0
  %13 = load i32, i32* %1, align 4, !tbaa !5
  %14 = srem i32 %13, 100
  %15 = icmp ne i32 %14, 0
  %16 = and i32 %13, 3
  %17 = icmp eq i32 %16, 0
  %18 = and i1 %15, %17
  br i1 %18, label %23, label %19

19:                                               ; preds = %12
  %20 = srem i32 %13, 400
  %21 = or i32 %14, %20
  %22 = icmp eq i32 %21, 0
  br i1 %22, label %23, label %25

23:                                               ; preds = %12, %19
  %24 = getelementptr inbounds [12 x i32], [12 x i32]* %4, i64 0, i64 1
  store i32 29, i32* %24, align 4, !tbaa !5
  br label %25

25:                                               ; preds = %19, %23
  %26 = add nsw i32 %10, -1
  %27 = zext i32 %26 to i64
  %28 = icmp ult i32 %26, 8
  br i1 %28, label %110, label %29

29:                                               ; preds = %25
  %30 = and i64 %27, 4294967288
  %31 = add nsw i64 %30, -8
  %32 = lshr exact i64 %31, 3
  %33 = add nuw nsw i64 %32, 1
  %34 = and i64 %33, 3
  %35 = icmp ult i64 %31, 24
  br i1 %35, label %81, label %36

36:                                               ; preds = %29
  %37 = and i64 %33, 4611686018427387900
  br label %38

38:                                               ; preds = %38, %36
  %39 = phi i64 [ 0, %36 ], [ %78, %38 ]
  %40 = phi <4 x i32> [ zeroinitializer, %36 ], [ %76, %38 ]
  %41 = phi <4 x i32> [ zeroinitializer, %36 ], [ %77, %38 ]
  %42 = phi i64 [ %37, %36 ], [ %79, %38 ]
  %43 = getelementptr inbounds [12 x i32], [12 x i32]* %4, i64 0, i64 %39
  %44 = bitcast i32* %43 to <4 x i32>*
  %45 = load <4 x i32>, <4 x i32>* %44, align 16, !tbaa !5
  %46 = getelementptr inbounds i32, i32* %43, i64 4
  %47 = bitcast i32* %46 to <4 x i32>*
  %48 = load <4 x i32>, <4 x i32>* %47, align 16, !tbaa !5
  %49 = add <4 x i32> %45, %40
  %50 = add <4 x i32> %48, %41
  %51 = or i64 %39, 8
  %52 = getelementptr inbounds [12 x i32], [12 x i32]* %4, i64 0, i64 %51
  %53 = bitcast i32* %52 to <4 x i32>*
  %54 = load <4 x i32>, <4 x i32>* %53, align 16, !tbaa !5
  %55 = getelementptr inbounds i32, i32* %52, i64 4
  %56 = bitcast i32* %55 to <4 x i32>*
  %57 = load <4 x i32>, <4 x i32>* %56, align 16, !tbaa !5
  %58 = add <4 x i32> %54, %49
  %59 = add <4 x i32> %57, %50
  %60 = or i64 %39, 16
  %61 = getelementptr inbounds [12 x i32], [12 x i32]* %4, i64 0, i64 %60
  %62 = bitcast i32* %61 to <4 x i32>*
  %63 = load <4 x i32>, <4 x i32>* %62, align 16, !tbaa !5
  %64 = getelementptr inbounds i32, i32* %61, i64 4
  %65 = bitcast i32* %64 to <4 x i32>*
  %66 = load <4 x i32>, <4 x i32>* %65, align 16, !tbaa !5
  %67 = add <4 x i32> %63, %58
  %68 = add <4 x i32> %66, %59
  %69 = or i64 %39, 24
  %70 = getelementptr inbounds [12 x i32], [12 x i32]* %4, i64 0, i64 %69
  %71 = bitcast i32* %70 to <4 x i32>*
  %72 = load <4 x i32>, <4 x i32>* %71, align 16, !tbaa !5
  %73 = getelementptr inbounds i32, i32* %70, i64 4
  %74 = bitcast i32* %73 to <4 x i32>*
  %75 = load <4 x i32>, <4 x i32>* %74, align 16, !tbaa !5
  %76 = add <4 x i32> %72, %67
  %77 = add <4 x i32> %75, %68
  %78 = add nuw i64 %39, 32
  %79 = add i64 %42, -4
  %80 = icmp eq i64 %79, 0
  br i1 %80, label %81, label %38, !llvm.loop !9

81:                                               ; preds = %38, %29
  %82 = phi <4 x i32> [ undef, %29 ], [ %76, %38 ]
  %83 = phi <4 x i32> [ undef, %29 ], [ %77, %38 ]
  %84 = phi i64 [ 0, %29 ], [ %78, %38 ]
  %85 = phi <4 x i32> [ zeroinitializer, %29 ], [ %76, %38 ]
  %86 = phi <4 x i32> [ zeroinitializer, %29 ], [ %77, %38 ]
  %87 = icmp eq i64 %34, 0
  br i1 %87, label %104, label %88

88:                                               ; preds = %81, %88
  %89 = phi i64 [ %101, %88 ], [ %84, %81 ]
  %90 = phi <4 x i32> [ %99, %88 ], [ %85, %81 ]
  %91 = phi <4 x i32> [ %100, %88 ], [ %86, %81 ]
  %92 = phi i64 [ %102, %88 ], [ %34, %81 ]
  %93 = getelementptr inbounds [12 x i32], [12 x i32]* %4, i64 0, i64 %89
  %94 = bitcast i32* %93 to <4 x i32>*
  %95 = load <4 x i32>, <4 x i32>* %94, align 16, !tbaa !5
  %96 = getelementptr inbounds i32, i32* %93, i64 4
  %97 = bitcast i32* %96 to <4 x i32>*
  %98 = load <4 x i32>, <4 x i32>* %97, align 16, !tbaa !5
  %99 = add <4 x i32> %95, %90
  %100 = add <4 x i32> %98, %91
  %101 = add nuw i64 %89, 8
  %102 = add i64 %92, -1
  %103 = icmp eq i64 %102, 0
  br i1 %103, label %104, label %88, !llvm.loop !12

104:                                              ; preds = %88, %81
  %105 = phi <4 x i32> [ %82, %81 ], [ %99, %88 ]
  %106 = phi <4 x i32> [ %83, %81 ], [ %100, %88 ]
  %107 = add <4 x i32> %106, %105
  %108 = call i32 @llvm.vector.reduce.add.v4i32(<4 x i32> %107)
  %109 = icmp eq i64 %30, %27
  br i1 %109, label %113, label %110

110:                                              ; preds = %25, %104
  %111 = phi i64 [ 0, %25 ], [ %30, %104 ]
  %112 = phi i32 [ 0, %25 ], [ %108, %104 ]
  br label %117

113:                                              ; preds = %117, %104
  %114 = phi i32 [ %108, %104 ], [ %122, %117 ]
  %115 = load i32, i32* %3, align 4, !tbaa !5
  %116 = add nsw i32 %115, %114
  br label %131

117:                                              ; preds = %110, %117
  %118 = phi i64 [ %123, %117 ], [ %111, %110 ]
  %119 = phi i32 [ %122, %117 ], [ %112, %110 ]
  %120 = getelementptr inbounds [12 x i32], [12 x i32]* %4, i64 0, i64 %118
  %121 = load i32, i32* %120, align 4, !tbaa !5
  %122 = add nsw i32 %121, %119
  %123 = add nuw nsw i64 %118, 1
  %124 = icmp eq i64 %123, %27
  br i1 %124, label %113, label %117, !llvm.loop !14

125:                                              ; preds = %0
  switch i32 %10, label %131 [
    i32 1, label %126
    i32 2, label %128
  ]

126:                                              ; preds = %125
  %127 = load i32, i32* %3, align 4, !tbaa !5
  br label %131

128:                                              ; preds = %125
  %129 = load i32, i32* %3, align 4, !tbaa !5
  %130 = add nsw i32 %129, 31
  br label %131

131:                                              ; preds = %125, %126, %128, %113
  %132 = phi i32 [ %116, %113 ], [ %127, %126 ], [ %130, %128 ], [ 0, %125 ]
  %133 = call i32 (i8*, ...) @printf(i8* nonnull dereferenceable(1) getelementptr inbounds ([3 x i8], [3 x i8]* @.str.1, i64 0, i64 0), i32 %132)
  %134 = load %struct._IO_FILE*, %struct._IO_FILE** @stdin, align 8, !tbaa !16
  %135 = call i32 @getc(%struct._IO_FILE* %134) #6
  %136 = load %struct._IO_FILE*, %struct._IO_FILE** @stdin, align 8, !tbaa !16
  %137 = call i32 @getc(%struct._IO_FILE* %136) #6
  %138 = load %struct._IO_FILE*, %struct._IO_FILE** @stdin, align 8, !tbaa !16
  %139 = call i32 @getc(%struct._IO_FILE* %138) #6
  call void @llvm.lifetime.end.p0i8(i64 48, i8* nonnull %8) #6
  call void @llvm.lifetime.end.p0i8(i64 4, i8* nonnull %7) #6
  call void @llvm.lifetime.end.p0i8(i64 4, i8* nonnull %6) #6
  call void @llvm.lifetime.end.p0i8(i64 4, i8* nonnull %5) #6
  ret i32 0
}

; Function Attrs: argmemonly mustprogress nofree nosync nounwind willreturn
declare void @llvm.lifetime.start.p0i8(i64 immarg, i8* nocapture) #2

; Function Attrs: argmemonly mustprogress nofree nounwind willreturn
declare void @llvm.memcpy.p0i8.p0i8.i64(i8* noalias nocapture writeonly, i8* noalias nocapture readonly, i64, i1 immarg) #3

; Function Attrs: nofree nounwind
declare noundef i32 @__isoc99_scanf(i8* nocapture noundef readonly, ...) local_unnamed_addr #4

; Function Attrs: argmemonly mustprogress nofree nosync nounwind willreturn
declare void @llvm.lifetime.end.p0i8(i64 immarg, i8* nocapture) #2

; Function Attrs: nofree nounwind
declare noundef i32 @printf(i8* nocapture noundef readonly, ...) local_unnamed_addr #4

; Function Attrs: nofree nounwind
declare noundef i32 @getc(%struct._IO_FILE* nocapture noundef) local_unnamed_addr #4

; Function Attrs: nofree nosync nounwind readnone willreturn
declare i32 @llvm.vector.reduce.add.v4i32(<4 x i32>) #5


!llvm.module.flags = !{!0, !1, !2, !3}
!llvm.ident = !{!4}

!0 = !{i32 1, !"wchar_size", i32 4}
!1 = !{i32 7, !"PIC Level", i32 2}
!2 = !{i32 7, !"PIE Level", i32 2}
!3 = !{i32 7, !"uwtable", i32 1}
!4 = !{!"clang version 13.0.0"}
!5 = !{!6, !6, i64 0}
!6 = !{!"int", !7, i64 0}
!7 = !{!"omnipotent char", !8, i64 0}
!8 = !{!"Simple C/C++ TBAA"}
!9 = distinct !{!9, !10, !11}
!10 = !{!"llvm.loop.mustprogress"}
!11 = !{!"llvm.loop.isvectorized", i32 1}
!12 = distinct !{!12, !13}
!13 = !{!"llvm.loop.unroll.disable"}
!14 = distinct !{!14, !10, !15, !11}
!15 = !{!"llvm.loop.unroll.runtime.disable"}
!16 = !{!17, !17, i64 0}
!17 = !{!"any pointer", !7, i64 0}
